; ModuleID = '20/365.c'
source_filename = "20/365.c"
target datalayout = "e-m:e-p270:32:32-p271:32:32-p272:64:64-i64:64-f80:128-n8:16:32:64-S128"
target triple = "x86_64-pc-linux-gnu"

@.str = private unnamed_addr constant [3 x i8] c"%c\00", align 1
@.str.1 = private unnamed_addr constant [9 x i8] c"%c%c%c%c\00", align 1
@.str.2 = private unnamed_addr constant [2 x i8] c"\0A\00", align 1

; Function Attrs: noinline nounwind uwtable
define dso_local i32 @main() #0 {
  %1 = alloca i32, align 4
  %2 = alloca i8*, align 8
  %3 = alloca i8*, align 8
  %4 = alloca i32, align 4
  %5 = alloca i32, align 4
  %6 = alloca [1000 x i8], align 16
  store i32 0, i32* %1, align 4
  br label %7

7:                                                ; preds = %98, %0
  %8 = getelementptr inbounds [1000 x i8], [1000 x i8]* %6, i64 0, i64 0
  %9 = call i32 (i8*, ...) bitcast (i32 (...)* @gets to i32 (i8*, ...)*)(i8* %8)
  %10 = icmp ne i32 %9, 0
  br i1 %10, label %11, label %100

11:                                               ; preds = %7
  %12 = getelementptr inbounds [1000 x i8], [1000 x i8]* %6, i64 0, i64 0
  %13 = call i64 @strlen(i8* %12) #3
  %14 = trunc i64 %13 to i32
  store i32 %14, i32* %4, align 4
  %15 = getelementptr inbounds [1000 x i8], [1000 x i8]* %6, i64 0, i64 0
  store i8* %15, i8** %3, align 8
  %16 = getelementptr inbounds [1000 x i8], [1000 x i8]* %6, i64 0, i64 0
  store i8* %16, i8** %2, align 8
  br label %17

17:                                               ; preds = %36, %11
  %18 = load i8*, i8** %2, align 8
  %19 = getelementptr inbounds [1000 x i8], [1000 x i8]* %6, i64 0, i64 0
  %20 = load i32, i32* %4, align 4
  %21 = sext i32 %20 to i64
  %22 = getelementptr inbounds i8, i8* %19, i64 %21
  %23 = getelementptr inbounds i8, i8* %22, i64 -4
  %24 = icmp ult i8* %18, %23
  br i1 %24, label %25, label %39

25:                                               ; preds = %17
  %26 = load i8*, i8** %2, align 8
  %27 = load i8, i8* %26, align 1
  %28 = sext i8 %27 to i32
  %29 = load i8*, i8** %3, align 8
  %30 = load i8, i8* %29, align 1
  %31 = sext i8 %30 to i32
  %32 = icmp sgt i32 %28, %31
  br i1 %32, label %33, label %35

33:                                               ; preds = %25
  %34 = load i8*, i8** %2, align 8
  store i8* %34, i8** %3, align 8
  br label %35

35:                                               ; preds = %33, %25
  br label %36

36:                                               ; preds = %35
  %37 = load i8*, i8** %2, align 8
  %38 = getelementptr inbounds i8, i8* %37, i32 1
  store i8* %38, i8** %2, align 8
  br label %17

39:                                               ; preds = %17
  %40 = getelementptr inbounds [1000 x i8], [1000 x i8]* %6, i64 0, i64 0
  store i8* %40, i8** %2, align 8
  br label %41

41:                                               ; preds = %95, %39
  %42 = load i8*, i8** %2, align 8
  %43 = getelementptr inbounds [1000 x i8], [1000 x i8]* %6, i64 0, i64 0
  %44 = load i32, i32* %4, align 4
  %45 = sext i32 %44 to i64
  %46 = getelementptr inbounds i8, i8* %43, i64 %45
  %47 = getelementptr inbounds i8, i8* %46, i64 -4
  %48 = icmp ult i8* %42, %47
  br i1 %48, label %49, label %98

49:                                               ; preds = %41
  %50 = load i8*, i8** %2, align 8
  %51 = load i8*, i8** %3, align 8
  %52 = icmp ult i8* %50, %51
  br i1 %52, label %53, label %58

53:                                               ; preds = %49
  %54 = load i8*, i8** %2, align 8
  %55 = load i8, i8* %54, align 1
  %56 = sext i8 %55 to i32
  %57 = call i32 (i8*, ...) @printf(i8* getelementptr inbounds ([3 x i8], [3 x i8]* @.str, i64 0, i64 0), i32 %56)
  br label %58

58:                                               ; preds = %53, %49
  %59 = load i8*, i8** %2, align 8
  %60 = load i8*, i8** %3, align 8
  %61 = icmp eq i8* %59, %60
  br i1 %61, label %62, label %85

62:                                               ; preds = %58
  %63 = load i8*, i8** %2, align 8
  %64 = load i8, i8* %63, align 1
  %65 = sext i8 %64 to i32
  %66 = load i32, i32* %4, align 4
  %67 = sub nsw i32 %66, 3
  %68 = sext i32 %67 to i64
  %69 = getelementptr inbounds [1000 x i8], [1000 x i8]* %6, i64 0, i64 %68
  %70 = load i8, i8* %69, align 1
  %71 = sext i8 %70 to i32
  %72 = load i32, i32* %4, align 4
  %73 = sub nsw i32 %72, 2
  %74 = sext i32 %73 to i64
  %75 = getelementptr inbounds [1000 x i8], [1000 x i8]* %6, i64 0, i64 %74
  %76 = load i8, i8* %75, align 1
  %77 = sext i8 %76 to i32
  %78 = load i32, i32* %4, align 4
  %79 = sub nsw i32 %78, 1
  %80 = sext i32 %79 to i64
  %81 = getelementptr inbounds [1000 x i8], [1000 x i8]* %6, i64 0, i64 %80
  %82 = load i8, i8* %81, align 1
  %83 = sext i8 %82 to i32
  %84 = call i32 (i8*, ...) @printf(i8* getelementptr inbounds ([9 x i8], [9 x i8]* @.str.1, i64 0, i64 0), i32 %65, i32 %71, i32 %77, i32 %83)
  br label %85

85:                                               ; preds = %62, %58
  %86 = load i8*, i8** %2, align 8
  %87 = load i8*, i8** %3, align 8
  %88 = icmp ugt i8* %86, %87
  br i1 %88, label %89, label %94

89:                                               ; preds = %85
  %90 = load i8*, i8** %2, align 8
  %91 = load i8, i8* %90, align 1
  %92 = sext i8 %91 to i32
  %93 = call i32 (i8*, ...) @printf(i8* getelementptr inbounds ([3 x i8], [3 x i8]* @.str, i64 0, i64 0), i32 %92)
  br label %94

94:                                               ; preds = %89, %85
  br label %95

95:                                               ; preds = %94
  %96 = load i8*, i8** %2, align 8
  %97 = getelementptr inbounds i8, i8* %96, i32 1
  store i8* %97, i8** %2, align 8
  br label %41

98:                                               ; preds = %41
  %99 = call i32 (i8*, ...) @printf(i8* getelementptr inbounds ([2 x i8], [2 x i8]* @.str.2, i64 0, i64 0))
  br label %7

100:                                              ; preds = %7
  ret i32 0
}

declare dso_local i32 @gets(...) #1

; Function Attrs: nounwind readonly
declare dso_local i64 @strlen(i8*) #2

declare dso_local i32 @printf(i8*, ...) #1


!llvm.module.flags = !{!0}
!llvm.ident = !{!1}

!0 = !{i32 1, !"wchar_size", i32 4}
!1 = !{!"clang version 10.0.0-4ubuntu1 "}
